target datalayout = "e-m:e-p270:32:32-p271:32:32-p272:64:64-i64:64-i128:128-f80:128-n8:16:32:64-S128"
target triple = "x86_64-pc-linux-gnu"

%struct.v3_ext_method = type { i32, i32, ptr, ptr, ptr, ptr, ptr, ptr, ptr, ptr, ptr, ptr, ptr, ptr }

@ext_list = internal global ptr null, align 8
@.str = private unnamed_addr constant [126 x i8] c"generated/home/dtcxzyw/WorkSpace/Projects/compilers/llvm-opt-benchmark/bench/libquic/libquic/boringssl/crypto/x509v3/v3_lib.c\00", align 1

; Function Attrs: nounwind uwtable
define internal void @ext_list_free(ptr noundef %0) #0 {
  %2 = alloca ptr, align 8
  store ptr %0, ptr %2, align 8, !tbaa !6
  %3 = load ptr, ptr %2, align 8, !tbaa !6
  %4 = getelementptr inbounds nuw %struct.v3_ext_method, ptr %3, i32 0, i32 1
  %5 = load i32, ptr %4, align 4, !tbaa !19
  %6 = and i32 %5, 1
  %7 = icmp ne i32 %6, 0
  br i1 %7, label %8, label %10

8:                                                ; preds = %1
  %9 = load ptr, ptr %2, align 8, !tbaa !6
  call void @free(ptr noundef %9) #7
  br label %10

10:                                               ; preds = %8, %1
  ret void
}

; Function Attrs: nounwind uwtable
define hidden i32 @X509V3_EXT_add(ptr noundef %0) #0 {
  %2 = alloca i32, align 4
  %3 = alloca ptr, align 8
  store ptr %0, ptr %3, align 8, !tbaa !6
  %4 = load ptr, ptr @ext_list, align 8, !tbaa !11
  %5 = icmp ne ptr %4, null
  br i1 %5, label %11, label %6

6:                                                ; preds = %1
  %7 = call ptr @sk_new(ptr noundef @ext_stack_cmp)
  store ptr %7, ptr @ext_list, align 8, !tbaa !11
  %8 = icmp ne ptr %7, null
  br i1 %8, label %11, label %9

9:                                                ; preds = %6
  call void @ERR_put_error(i32 noundef 20, i32 noundef 0, i32 noundef 65, ptr noundef @.str, i32 noundef 83)
  %10 = load ptr, ptr %3, align 8, !tbaa !6
  call void @ext_list_free(ptr noundef %10)
  store i32 0, ptr %2, align 4
  br label %19

11:                                               ; preds = %6, %1
  %12 = load ptr, ptr @ext_list, align 8, !tbaa !11
  %13 = load ptr, ptr %3, align 8, !tbaa !6
  %14 = call i64 @sk_push(ptr noundef %12, ptr noundef %13)
  %15 = icmp ne i64 %14, 0
  br i1 %15, label %18, label %16

16:                                               ; preds = %11
  call void @ERR_put_error(i32 noundef 20, i32 noundef 0, i32 noundef 65, ptr noundef @.str, i32 noundef 88)
  %17 = load ptr, ptr %3, align 8, !tbaa !6
  call void @ext_list_free(ptr noundef %17)
  store i32 0, ptr %2, align 4
  br label %19

18:                                               ; preds = %11
  store i32 1, ptr %2, align 4
  br label %19

19:                                               ; preds = %18, %16, %9
  %20 = load i32, ptr %2, align 4
  ret i32 %20
}