; Function Attrs: nounwind uwtable
define hidden range(i32 0, 2) i32 @X509V3_EXT_add(ptr noundef %0) local_unnamed_addr #0 {
  %2 = load ptr, ptr @ext_list, align 8, !tbaa !6
  %.not = icmp eq ptr %2, null
  br i1 %.not, label %3, label %9

3:                                                ; preds = %1
  %4 = tail call ptr @sk_new(ptr noundef nonnull @ext_stack_cmp) #10
  store ptr %4, ptr @ext_list, align 8, !tbaa !6
  %.not3 = icmp eq ptr %4, null
  br i1 %.not3, label %5, label %9

5:                                                ; preds = %3
  tail call void @ERR_put_error(i32 noundef 20, i32 noundef 0, i32 noundef 65, ptr noundef nonnull @.str, i32 noundef 83) #10
  %6 = getelementptr inbounds nuw i8, ptr %0, i64 4
  %7 = load i32, ptr %6, align 4, !tbaa !11
  %8 = and i32 %7, 1
  %.not.i = icmp eq i32 %8, 0
  br i1 %.not.i, label %ext_list_free.exit, label %ext_list_free.exit.sink.split

9:                                                ; preds = %3, %1
  %10 = phi ptr [ %4, %3 ], [ %2, %1 ]
  %11 = tail call i64 @sk_push(ptr noundef nonnull %10, ptr noundef %0) #10
  %.not4 = icmp eq i64 %11, 0
  br i1 %.not4, label %12, label %ext_list_free.exit

12:                                               ; preds = %9
  tail call void @ERR_put_error(i32 noundef 20, i32 noundef 0, i32 noundef 65, ptr noundef nonnull @.str, i32 noundef 88) #10
  %13 = getelementptr inbounds nuw i8, ptr %0, i64 4
  %14 = load i32, ptr %13, align 4, !tbaa !11
  %15 = and i32 %14, 1
  %.not.i5 = icmp eq i32 %15, 0
  br i1 %.not.i5, label %ext_list_free.exit, label %ext_list_free.exit.sink.split

ext_list_free.exit.sink.split:                    ; preds = %12, %5
  tail call void @free(ptr noundef nonnull %0) #10
  br label %ext_list_free.exit

ext_list_free.exit:                               ; preds = %ext_list_free.exit.sink.split, %12, %5, %9
  %.0 = phi i32 [ 1, %9 ], [ 0, %5 ], [ 0, %12 ], [ 0, %ext_list_free.exit.sink.split ]
  ret i32 %.0
}